; Function Attrs: nounwind uwtable
define ptr @l_Lean_Elab_TerminationBy_checkVars_parameters(ptr noundef %0) local_unnamed_addr #1 {
  %2 = ptrtoint ptr %0 to i64
  %3 = and i64 %2, 1
  %.not = icmp eq i64 %3, 0
  br i1 %.not, label %lean_nat_eq.exit.thread, label %lean_nat_eq.exit, !prof !18

lean_nat_eq.exit:                                 ; preds = %1
  %.not21 = icmp eq ptr %0, inttoptr (i64 3 to ptr)
  br i1 %.not21, label %lean_dec.exit, label %5

lean_nat_eq.exit.thread:                          ; preds = %1
  %4 = tail call zeroext i1 @lean_nat_big_eq(ptr noundef %0, ptr noundef nonnull inttoptr (i64 3 to ptr)) #8
  br i1 %4, label %.thread, label %5

5:                                                ; preds = %lean_nat_eq.exit.thread, %lean_nat_eq.exit
  %6 = tail call ptr @l___private_Init_Data_Repr_0__Nat_reprFast(ptr noundef %0) #8
  tail call void @lean_inc_heartbeat() #8
  %7 = tail call noalias ptr @mi_malloc_small(i64 noundef 16) #8
  %8 = icmp eq ptr %7, null
  br i1 %8, label %9, label %lean_alloc_ctor.exit

9:                                                ; preds = %5
  tail call void @lean_internal_panic_out_of_memory() #9
  unreachable

lean_alloc_ctor.exit:                             ; preds = %5
  %10 = getelementptr inbounds nuw i8, ptr %7, i64 4
  store i32 1, ptr %7, align 4, !tbaa !4
  store i32 50397200, ptr %10, align 4
  %11 = getelementptr inbounds nuw i8, ptr %7, i64 8
  store ptr %6, ptr %11, align 8, !tbaa !10
  %12 = tail call ptr @l_Lean_MessageData_ofFormat(ptr noundef nonnull %7) #8
  %13 = load ptr, ptr @l_Lean_Elab_TerminationHints_ensureNone___closed__4, align 8, !tbaa !10
  tail call void @lean_inc_heartbeat() #8
  %14 = tail call noalias ptr @mi_malloc_small(i64 noundef 24) #8
  %15 = icmp eq ptr %14, null
  br i1 %15, label %16, label %lean_alloc_ctor.exit18

16:                                               ; preds = %lean_alloc_ctor.exit
  tail call void @lean_internal_panic_out_of_memory() #9
  unreachable

lean_alloc_ctor.exit18:                           ; preds = %lean_alloc_ctor.exit
  %17 = getelementptr inbounds nuw i8, ptr %14, i64 4
  store i32 1, ptr %14, align 4, !tbaa !4
  store i32 117571608, ptr %17, align 4
  %18 = getelementptr inbounds nuw i8, ptr %14, i64 8
  store ptr %13, ptr %18, align 8, !tbaa !10
  %19 = getelementptr inbounds nuw i8, ptr %14, i64 16
  store ptr %12, ptr %19, align 8, !tbaa !10
  %20 = load ptr, ptr @l_Lean_Elab_TerminationBy_checkVars_parameters___closed__2, align 8, !tbaa !10
  tail call void @lean_inc_heartbeat() #8
  %21 = tail call noalias ptr @mi_malloc_small(i64 noundef 24) #8
  %22 = icmp eq ptr %21, null
  br i1 %22, label %23, label %lean_alloc_ctor.exit19

23:                                               ; preds = %lean_alloc_ctor.exit18
  tail call void @lean_internal_panic_out_of_memory() #9
  unreachable

lean_alloc_ctor.exit19:                           ; preds = %lean_alloc_ctor.exit18
  %24 = getelementptr inbounds nuw i8, ptr %21, i64 4
  store i32 1, ptr %21, align 4, !tbaa !4
  store i32 117571608, ptr %24, align 4
  %25 = getelementptr inbounds nuw i8, ptr %21, i64 8
  store ptr %14, ptr %25, align 8, !tbaa !10
  %26 = getelementptr inbounds nuw i8, ptr %21, i64 16
  store ptr %20, ptr %26, align 8, !tbaa !10
  br label %34

.thread:                                          ; preds = %lean_nat_eq.exit.thread
  %27 = load i32, ptr %0, align 4, !tbaa !4
  %28 = icmp sgt i32 %27, 1
  br i1 %28, label %29, label %31, !prof !9

29:                                               ; preds = %.thread
  %30 = add nsw i32 %27, -1
  store i32 %30, ptr %0, align 4, !tbaa !4
  br label %lean_dec.exit

31:                                               ; preds = %.thread
  %.not.i = icmp eq i32 %27, 0
  br i1 %.not.i, label %lean_dec.exit, label %32

32:                                               ; preds = %31
  tail call void @lean_dec_ref_cold(ptr noundef nonnull %0) #8
  br label %lean_dec.exit

lean_dec.exit:                                    ; preds = %lean_nat_eq.exit, %32, %31, %29
  %33 = load ptr, ptr @l_Lean_Elab_TerminationBy_checkVars_parameters___closed__5, align 8, !tbaa !10
  br label %34

34:                                               ; preds = %lean_dec.exit, %lean_alloc_ctor.exit19
  %.0 = phi ptr [ %21, %lean_alloc_ctor.exit19 ], [ %33, %lean_dec.exit ]
  ret ptr %.0
}